target datalayout = "e-m:e-p270:32:32-p271:32:32-p272:64:64-i64:64-i128:128-f80:128-n8:16:32:64-S128"
target triple = "x86_64-unknown-linux-gnu"

%"class.dpx::RunLengthEncoding" = type { %"class.dpx::Codec", ptr }
%"class.dpx::Codec" = type { ptr, ptr }

; Function Attrs: mustprogress nounwind uwtable
define hidden void @_ZN3dpx17RunLengthEncodingD2Ev(ptr noundef nonnull align 8 dereferenceable(24) %this) unnamed_addr #1 align 2 {
entry:
  %this.addr = alloca ptr, align 8
  store ptr %this, ptr %this.addr, align 8
  %this1 = load ptr, ptr %this.addr, align 8
  store ptr getelementptr inbounds ({ [6 x ptr] }, ptr @_ZTVN3dpx17RunLengthEncodingE, i32 0, i32 0, i32 2), ptr %this1, align 8
  %buf = getelementptr inbounds %"class.dpx::RunLengthEncoding", ptr %this1, i32 0, i32 1
  %0 = load ptr, ptr %buf, align 8
  %tobool = icmp ne ptr %0, null
  br i1 %tobool, label %if.then, label %if.end

if.then:                                          ; preds = %entry
  %buf2 = getelementptr inbounds %"class.dpx::RunLengthEncoding", ptr %this1, i32 0, i32 1
  %1 = load ptr, ptr %buf2, align 8
  %isnull = icmp eq ptr %1, null
  br i1 %isnull, label %delete.end, label %delete.notnull

delete.notnull:                                   ; preds = %if.then
  call void @_ZdaPv(ptr noundef %1) #8
  br label %delete.end

delete.end:                                       ; preds = %delete.notnull, %if.then
  br label %if.end

if.end:                                           ; preds = %delete.end, %entry
  call void @_ZN3dpx5CodecD2Ev(ptr noundef nonnull align 8 dereferenceable(16) %this1) #5
  ret void
}