; Function Attrs: mustprogress nounwind uwtable
define hidden void @_ZN3dpx17RunLengthEncodingD2Ev(ptr noundef nonnull align 8 dereferenceable(24) %this) unnamed_addr #5 align 2 {
entry:
  store ptr getelementptr inbounds ({ [6 x ptr] }, ptr @_ZTVN3dpx17RunLengthEncodingE, i64 0, i32 0, i64 2), ptr %this, align 8
  %buf = getelementptr inbounds i8, ptr %this, i64 16
  %0 = load ptr, ptr %buf, align 8
  %tobool.not = icmp eq ptr %0, null
  br i1 %tobool.not, label %if.end, label %delete.notnull

delete.notnull:                                   ; preds = %entry
  tail call void @_ZdaPv(ptr noundef nonnull %0) #8
  br label %if.end

if.end:                                           ; preds = %delete.notnull, %entry
  tail call void @_ZN3dpx5CodecD2Ev(ptr noundef nonnull align 8 dereferenceable(16) %this) #9
  ret void
}